; Function Attrs: mustprogress uwtable
define void @_ZN3nix15RegularFileSink17createRegularFileERKNSt7__cxx1112basic_stringIcSt11char_traitsIcESaIcEEESt8functionIFvRNS_21CreateRegularFileSinkEEE(ptr noundef nonnull align 8 dereferenceable(24) %0, ptr nocapture nonnull readnone align 8 %1, ptr noundef %2) unnamed_addr #4 align 2 personality ptr @__gxx_personality_v0 {
  %4 = alloca %struct.CRF, align 8
  store ptr getelementptr inbounds ({ [8 x ptr] }, ptr @_ZTVZN3nix15RegularFileSink17createRegularFileERKNSt7__cxx1112basic_stringIcSt11char_traitsIcESaIcEEESt8functionIFvRNS_21CreateRegularFileSinkEEEE3CRF, i64 0, i32 0, i64 2), ptr %4, align 8
  %5 = getelementptr inbounds i8, ptr %4, i64 8
  store ptr %0, ptr %5, align 8
  %6 = getelementptr inbounds i8, ptr %2, i64 16
  %7 = load ptr, ptr %6, align 8
  %.not.i.i = icmp eq ptr %7, null
  br i1 %.not.i.i, label %.noexc, label %_ZNKSt8functionIFvRN3nix21CreateRegularFileSinkEEEclES2_.exit

.noexc:                                           ; preds = %3
  tail call void @_ZSt25__throw_bad_function_callv() #30
  unreachable

_ZNKSt8functionIFvRN3nix21CreateRegularFileSinkEEEclES2_.exit: ; preds = %3
  %8 = getelementptr inbounds i8, ptr %2, i64 24
  %9 = load ptr, ptr %8, align 8
  call void %9(ptr noundef nonnull align 8 dereferenceable(16) %2, ptr noundef nonnull align 8 dereferenceable(8) %4)
  ret void
}